///////////////////////////////////////////////////////////////////////////////
//                                                                            /
// IAR C/C++ Compiler V8.10.3.10338/W32 for 8051        27/Jun/2025  14:47:06 /
// Copyright 2004-2011 IAR Systems AB.                                        /
//                                                                            /
//    Core               =  plain                                             /
//    Code model         =  banked                                            /
//    Data model         =  large                                             /
//    Calling convention =  xdata reentrant                                   /
//    Constant location  =  data_rom                                          /
//    Dptr setup         =  1,16                                              /
//    Source file        =  D:\Program field\¶àÖÕ¶ËÊý¾ÝZigbee×éÍøWiFi·¢ËÍµ½ON /
//                          ENET\¶àÖÕ¶ËÊý¾ÝZigbee×éÍøWiFi·¢ËÍµ½ONENET\ZStack- /
//                          CC2530-2.3.0-1.4.0\Projects\zstack\Samples\Sample /
//                          App\CC2530DB\EndDeviceEB2.c                       /
//    Command line       =  -f "D:\Program field\¶àÖÕ¶ËÊý¾ÝZigbee×éÍøWiFi·¢ËÍ /
//                          µ½ONENET\¶àÖÕ¶ËÊý¾ÝZigbee×éÍøWiFi·¢ËÍµ½ONENET\ZSt /
//                          ack-CC2530-2.3.0-1.4.0\Projects\zstack\Samples\Sa /
//                          mpleApp\CC2530DB\..\..\..\Tools\CC2530DB\f8wEndev /
//                          .cfg" (-DCPU32MHZ -DROOT=__near_func              /
//                          -DBLINK_LEDS) -f "D:\Program                      /
//                          field\¶àÖÕ¶ËÊý¾ÝZigbee×éÍøWiFi·¢ËÍµ½ONENET\¶àÖÕ¶Ë /
//                          Êý¾ÝZigbee×éÍøWiFi·¢ËÍµ½ONENET\ZStack-CC2530-2.3. /
//                          0-1.4.0\Projects\zstack\Samples\SampleApp\CC2530D /
//                          B\..\..\..\Tools\CC2530DB\f8wConfig.cfg"          /
//                          (-DSECURE=0 -DZG_SECURE_DYNAMIC=0 -DREFLECTOR     /
//                          -DDEFAULT_CHANLIST=0x00020000                     /
//                          -DZDAPP_CONFIG_PAN_ID=0xFFF1                      /
//                          -DNWK_START_DELAY=100 -DEXTENDED_JOINING_RANDOM_M /
//                          ASK=0x007F -DBEACON_REQUEST_DELAY=100             /
//                          -DBEACON_REQ_DELAY_MASK=0x00FF                    /
//                          -DROUTE_EXPIRY_TIME=30 -DAPSC_ACK_WAIT_DURATION_P /
//                          OLLED=3000 -DNWK_INDIRECT_MSG_TIMEOUT=7           /
//                          -DMAX_RREQ_ENTRIES=8 -DAPSC_MAX_FRAME_RETRIES=3   /
//                          -DNWK_MAX_DATA_RETRIES=2                          /
//                          -DMAX_POLL_FAILURE_RETRIES=2 -DMAX_BCAST=9        /
//                          -DAPS_MAX_GROUPS=16 -DMAX_RTG_ENTRIES=40          /
//                          -DNWK_MAX_BINDING_ENTRIES=4                       /
//                          -DMAX_BINDING_CLUSTER_IDS=4                       /
//                          "-DDEFAULT_KEY={0x01, 0x03, 0x05, 0x07, 0x09,     /
//                          0x0B, 0x0D, 0x0F, 0x00, 0x02, 0x04, 0x06, 0x08,   /
//                          0x0A, 0x0C, 0x0D}" -DMAC_MAX_FRAME_SIZE=116       /
//                          "-DCONST=const __code" -DGENERIC=__generic        /
//                          -DRFD_RCVC_ALWAYS_ON=FALSE -DPOLL_RATE=1000       /
//                          -DQUEUED_POLL_RATE=100 -DRESPONSE_POLL_RATE=100)  /
//                          -DREJOIN_POLL_RATE=440 "D:\Program                /
//                          field\¶àÖÕ¶ËÊý¾ÝZigbee×éÍøWiFi·¢ËÍµ½ONENET\¶àÖÕ¶Ë /
//                          Êý¾ÝZigbee×éÍøWiFi·¢ËÍµ½ONENET\ZStack-CC2530-2.3. /
//                          0-1.4.0\Projects\zstack\Samples\SampleApp\CC2530D /
//                          B\EndDeviceEB2.c" -D ZIGBEEPRO -D NWK_AUTO_POLL   /
//                          -D xMT_TASK -D ZTOOL_P1 -D xMT_SYS_FUNC -D        /
//                          xMT_ZDO_FUNC -D LCD_SUPPORTED=DEBUG -lC           /
//                          "D:\Program field\¶àÖÕ¶ËÊý¾ÝZigbee×éÍøWiFi·¢ËÍµ½O /
//                          NENET\¶àÖÕ¶ËÊý¾ÝZigbee×éÍøWiFi·¢ËÍµ½ONENET\ZStack /
//                          -CC2530-2.3.0-1.4.0\Projects\zstack\Samples\Sampl /
//                          eApp\CC2530DB\EndDeviceEB-2\List\" -lA            /
//                          "D:\Program field\¶àÖÕ¶ËÊý¾ÝZigbee×éÍøWiFi·¢ËÍµ½O /
//                          NENET\¶àÖÕ¶ËÊý¾ÝZigbee×éÍøWiFi·¢ËÍµ½ONENET\ZStack /
//                          -CC2530-2.3.0-1.4.0\Projects\zstack\Samples\Sampl /
//                          eApp\CC2530DB\EndDeviceEB-2\List\"                /
//                          --diag_suppress Pe001,Pa010 -o "D:\Program        /
//                          field\¶àÖÕ¶ËÊý¾ÝZigbee×éÍøWiFi·¢ËÍµ½ONENET\¶àÖÕ¶Ë /
//                          Êý¾ÝZigbee×éÍøWiFi·¢ËÍµ½ONENET\ZStack-CC2530-2.3. /
//                          0-1.4.0\Projects\zstack\Samples\SampleApp\CC2530D /
//                          B\EndDeviceEB-2\Obj\" -e --debug --core=plain     /
//                          --dptr=16,1 --data_model=large                    /
//                          --code_model=banked --calling_convention=xdata_re /
//                          entrant --place_constants=data_rom                /
//                          --nr_virtual_regs 16 -I "D:\Program               /
//                          field\¶àÖÕ¶ËÊý¾ÝZigbee×éÍøWiFi·¢ËÍµ½ONENET\¶àÖÕ¶Ë /
//                          Êý¾ÝZigbee×éÍøWiFi·¢ËÍµ½ONENET\ZStack-CC2530-2.3. /
//                          0-1.4.0\Projects\zstack\Samples\SampleApp\CC2530D /
//                          B\" -I "D:\Program field\¶àÖÕ¶ËÊý¾ÝZigbee×éÍøWiFi /
//                          ·¢ËÍµ½ONENET\¶àÖÕ¶ËÊý¾ÝZigbee×éÍøWiFi·¢ËÍµ½ONENET /
//                          \ZStack-CC2530-2.3.0-1.4.0\Projects\zstack\Sample /
//                          s\SampleApp\CC2530DB\..\SOURCE\" -I "D:\Program   /
//                          field\¶àÖÕ¶ËÊý¾ÝZigbee×éÍøWiFi·¢ËÍµ½ONENET\¶àÖÕ¶Ë /
//                          Êý¾ÝZigbee×éÍøWiFi·¢ËÍµ½ONENET\ZStack-CC2530-2.3. /
//                          0-1.4.0\Projects\zstack\Samples\SampleApp\CC2530D /
//                          B\..\..\..\ZMAIN\TI2530DB\" -I "D:\Program        /
//                          field\¶àÖÕ¶ËÊý¾ÝZigbee×éÍøWiFi·¢ËÍµ½ONENET\¶àÖÕ¶Ë /
//                          Êý¾ÝZigbee×éÍøWiFi·¢ËÍµ½ONENET\ZStack-CC2530-2.3. /
//                          0-1.4.0\Projects\zstack\Samples\SampleApp\CC2530D /
//                          B\..\..\..\..\..\COMPONENTS\MT\" -I "D:\Program   /
//                          field\¶àÖÕ¶ËÊý¾ÝZigbee×éÍøWiFi·¢ËÍµ½ONENET\¶àÖÕ¶Ë /
//                          Êý¾ÝZigbee×éÍøWiFi·¢ËÍµ½ONENET\ZStack-CC2530-2.3. /
//                          0-1.4.0\Projects\zstack\Samples\SampleApp\CC2530D /
//                          B\..\..\..\..\..\COMPONENTS\HAL\INCLUDE\" -I      /
//                          "D:\Program field\¶àÖÕ¶ËÊý¾ÝZigbee×éÍøWiFi·¢ËÍµ½O /
//                          NENET\¶àÖÕ¶ËÊý¾ÝZigbee×éÍøWiFi·¢ËÍµ½ONENET\ZStack /
//                          -CC2530-2.3.0-1.4.0\Projects\zstack\Samples\Sampl /
//                          eApp\CC2530DB\..\..\..\..\..\COMPONENTS\HAL\TARGE /
//                          T\CC2530EB\" -I "D:\Program                       /
//                          field\¶àÖÕ¶ËÊý¾ÝZigbee×éÍøWiFi·¢ËÍµ½ONENET\¶àÖÕ¶Ë /
//                          Êý¾ÝZigbee×éÍøWiFi·¢ËÍµ½ONENET\ZStack-CC2530-2.3. /
//                          0-1.4.0\Projects\zstack\Samples\SampleApp\CC2530D /
//                          B\..\..\..\..\..\COMPONENTS\OSAL\MCU\CCSOC\" -I   /
//                          "D:\Program field\¶àÖÕ¶ËÊý¾ÝZigbee×éÍøWiFi·¢ËÍµ½O /
//                          NENET\¶àÖÕ¶ËÊý¾ÝZigbee×éÍøWiFi·¢ËÍµ½ONENET\ZStack /
//                          -CC2530-2.3.0-1.4.0\Projects\zstack\Samples\Sampl /
//                          eApp\CC2530DB\..\..\..\..\..\COMPONENTS\OSAL\INCL /
//                          UDE\" -I "D:\Program field\¶àÖÕ¶ËÊý¾ÝZigbee×éÍøWi /
//                          Fi·¢ËÍµ½ONENET\¶àÖÕ¶ËÊý¾ÝZigbee×éÍøWiFi·¢ËÍµ½ONEN /
//                          ET\ZStack-CC2530-2.3.0-1.4.0\Projects\zstack\Samp /
//                          les\SampleApp\CC2530DB\..\..\..\..\..\COMPONENTS\ /
//                          STACK\AF\" -I "D:\Program                         /
//                          field\¶àÖÕ¶ËÊý¾ÝZigbee×éÍøWiFi·¢ËÍµ½ONENET\¶àÖÕ¶Ë /
//                          Êý¾ÝZigbee×éÍøWiFi·¢ËÍµ½ONENET\ZStack-CC2530-2.3. /
//                          0-1.4.0\Projects\zstack\Samples\SampleApp\CC2530D /
//                          B\..\..\..\..\..\COMPONENTS\STACK\NWK\" -I        /
//                          "D:\Program field\¶àÖÕ¶ËÊý¾ÝZigbee×éÍøWiFi·¢ËÍµ½O /
//                          NENET\¶àÖÕ¶ËÊý¾ÝZigbee×éÍøWiFi·¢ËÍµ½ONENET\ZStack /
//                          -CC2530-2.3.0-1.4.0\Projects\zstack\Samples\Sampl /
//                          eApp\CC2530DB\..\..\..\..\..\COMPONENTS\STACK\SEC /
//                          \" -I "D:\Program field\¶àÖÕ¶ËÊý¾ÝZigbee×éÍøWiFi· /
//                          ¢ËÍµ½ONENET\¶àÖÕ¶ËÊý¾ÝZigbee×éÍøWiFi·¢ËÍµ½ONENET\ /
//                          ZStack-CC2530-2.3.0-1.4.0\Projects\zstack\Samples /
//                          \SampleApp\CC2530DB\..\..\..\..\..\COMPONENTS\STA /
//                          CK\SAPI\" -I "D:\Program                          /
//                          field\¶àÖÕ¶ËÊý¾ÝZigbee×éÍøWiFi·¢ËÍµ½ONENET\¶àÖÕ¶Ë /
//                          Êý¾ÝZigbee×éÍøWiFi·¢ËÍµ½ONENET\ZStack-CC2530-2.3. /
//                          0-1.4.0\Projects\zstack\Samples\SampleApp\CC2530D /
//                          B\..\..\..\..\..\COMPONENTS\STACK\SYS\" -I        /
//                          "D:\Program field\¶àÖÕ¶ËÊý¾ÝZigbee×éÍøWiFi·¢ËÍµ½O /
//                          NENET\¶àÖÕ¶ËÊý¾ÝZigbee×éÍøWiFi·¢ËÍµ½ONENET\ZStack /
//                          -CC2530-2.3.0-1.4.0\Projects\zstack\Samples\Sampl /
//                          eApp\CC2530DB\..\..\..\..\..\COMPONENTS\STACK\ZDO /
//                          \" -I "D:\Program field\¶àÖÕ¶ËÊý¾ÝZigbee×éÍøWiFi· /
//                          ¢ËÍµ½ONENET\¶àÖÕ¶ËÊý¾ÝZigbee×éÍøWiFi·¢ËÍµ½ONENET\ /
//                          ZStack-CC2530-2.3.0-1.4.0\Projects\zstack\Samples /
//                          \SampleApp\CC2530DB\..\..\..\..\..\COMPONENTS\ZMA /
//                          C\F8W\" -I "D:\Program field\¶àÖÕ¶ËÊý¾ÝZigbee×éÍø /
//                          WiFi·¢ËÍµ½ONENET\¶àÖÕ¶ËÊý¾ÝZigbee×éÍøWiFi·¢ËÍµ½ON /
//                          ENET\ZStack-CC2530-2.3.0-1.4.0\Projects\zstack\Sa /
//                          mples\SampleApp\CC2530DB\..\..\..\..\..\COMPONENT /
//                          S\ZMAC\" -I "D:\Program                           /
//                          field\¶àÖÕ¶ËÊý¾ÝZigbee×éÍøWiFi·¢ËÍµ½ONENET\¶àÖÕ¶Ë /
//                          Êý¾ÝZigbee×éÍøWiFi·¢ËÍµ½ONENET\ZStack-CC2530-2.3. /
//                          0-1.4.0\Projects\zstack\Samples\SampleApp\CC2530D /
//                          B\..\..\..\..\..\COMPONENTS\SERVICES\SADDR\" -I   /
//                          "D:\Program field\¶àÖÕ¶ËÊý¾ÝZigbee×éÍøWiFi·¢ËÍµ½O /
//                          NENET\¶àÖÕ¶ËÊý¾ÝZigbee×éÍøWiFi·¢ËÍµ½ONENET\ZStack /
//                          -CC2530-2.3.0-1.4.0\Projects\zstack\Samples\Sampl /
//                          eApp\CC2530DB\..\..\..\..\..\COMPONENTS\SERVICES\ /
//                          SDATA\" -I "D:\Program field\¶àÖÕ¶ËÊý¾ÝZigbee×éÍø /
//                          WiFi·¢ËÍµ½ONENET\¶àÖÕ¶ËÊý¾ÝZigbee×éÍøWiFi·¢ËÍµ½ON /
//                          ENET\ZStack-CC2530-2.3.0-1.4.0\Projects\zstack\Sa /
//                          mples\SampleApp\CC2530DB\..\..\..\..\..\COMPONENT /
//                          S\MAC\INCLUDE\" -I "D:\Program                    /
//                          field\¶àÖÕ¶ËÊý¾ÝZigbee×éÍøWiFi·¢ËÍµ½ONENET\¶àÖÕ¶Ë /
//                          Êý¾ÝZigbee×éÍøWiFi·¢ËÍµ½ONENET\ZStack-CC2530-2.3. /
//                          0-1.4.0\Projects\zstack\Samples\SampleApp\CC2530D /
//                          B\..\..\..\..\..\COMPONENTS\MAC\HIGH_LEVEL\" -I   /
//                          "D:\Program field\¶àÖÕ¶ËÊý¾ÝZigbee×éÍøWiFi·¢ËÍµ½O /
//                          NENET\¶àÖÕ¶ËÊý¾ÝZigbee×éÍøWiFi·¢ËÍµ½ONENET\ZStack /
//                          -CC2530-2.3.0-1.4.0\Projects\zstack\Samples\Sampl /
//                          eApp\CC2530DB\..\..\..\..\..\COMPONENTS\MAC\LOW_L /
//                          EVEL\srf04\" -I "D:\Program                       /
//                          field\¶àÖÕ¶ËÊý¾ÝZigbee×éÍøWiFi·¢ËÍµ½ONENET\¶àÖÕ¶Ë /
//                          Êý¾ÝZigbee×éÍøWiFi·¢ËÍµ½ONENET\ZStack-CC2530-2.3. /
//                          0-1.4.0\Projects\zstack\Samples\SampleApp\CC2530D /
//                          B\..\..\..\..\..\COMPONENTS\MAC\LOW_LEVEL\srf04\S /
//                          INGLE_CHIP\" -Ohz --require_prototypes            /
//    List file          =  D:\Program field\¶àÖÕ¶ËÊý¾ÝZigbee×éÍøWiFi·¢ËÍµ½ON /
//                          ENET\¶àÖÕ¶ËÊý¾ÝZigbee×éÍøWiFi·¢ËÍµ½ONENET\ZStack- /
//                          CC2530-2.3.0-1.4.0\Projects\zstack\Samples\Sample /
//                          App\CC2530DB\EndDeviceEB-2\List\EndDeviceEB2.s51  /
//                                                                            /
//                                                                            /
///////////////////////////////////////////////////////////////////////////////

        NAME EndDeviceEB2

        RTMODEL "__SystemLibrary", "CLib"
        RTMODEL "__calling_convention", "xdata_reentrant"
        RTMODEL "__code_model", "banked"
        RTMODEL "__core", "plain"
        RTMODEL "__data_model", "large"
        RTMODEL "__dptr_size", "16"
        RTMODEL "__extended_stack", "disabled"
        RTMODEL "__location_for_constants", "data"
        RTMODEL "__number_of_dptrs", "1"
        RTMODEL "__rt_version", "1"

        RSEG DOVERLAY:DATA:NOROOT(0)
        RSEG IOVERLAY:IDATA:NOROOT(0)
        RSEG ISTACK:IDATA:NOROOT(0)
        RSEG PSTACK:XDATA:NOROOT(0)
        RSEG XSTACK:XDATA:NOROOT(0)

        EXTERN ?ALLOC_XSTACK8
        EXTERN ?BANKED_ENTER_XDATA
        EXTERN ?BANKED_LEAVE_XDATA
        EXTERN ?BDISPATCH
        EXTERN ?DEALLOC_XSTACK8
        EXTERN ?PUSH_XSTACK_I_ONE
        EXTERN ?PUSH_XSTACK_I_THREE
        EXTERN ?PUSH_XSTACK_I_TWO
        EXTERN ?V0
        EXTERN ?XSP
        EXTERN ?XSTACK_DISP0_8
        EXTERN __INIT_XDATA_Z

        PUBLIC ??SampleApp_HandleKeys?relay
        FUNCTION ??SampleApp_HandleKeys?relay,0203H
        PUBLIC ??SampleApp_Init?relay
        FUNCTION ??SampleApp_Init?relay,0203H
        PUBLIC ??SampleApp_ProcessEvent?relay
        FUNCTION ??SampleApp_ProcessEvent?relay,0203H
        PUBLIC ??SampleApp_SendFlashMessage?relay
        FUNCTION ??SampleApp_SendFlashMessage?relay,0203H
        PUBWEAK P0SEL
        PUBLIC SampleAppFlashCounter
        PUBLIC SampleAppPeriodicCounter
        PUBLIC SampleApp_ClusterList
        PUBLIC SampleApp_Flash_DstAddr
        PUBLIC SampleApp_Group
        PUBLIC SampleApp_HandleKeys
        FUNCTION SampleApp_HandleKeys,021203H
        ARGFRAME XSTACK, 14, STACK
        ARGFRAME IOVERLAY, 0, STATIC
        ARGFRAME DOVERLAY, 0, STATIC
        LOCFRAME XSTACK, 9, STACK
        PUBLIC SampleApp_Init
        FUNCTION SampleApp_Init,021203H
        ARGFRAME XSTACK, 0, STACK
        LOCFRAME XSTACK, 24, STACK
        PUBLIC SampleApp_NwkState
        PUBLIC SampleApp_P2P_DstAddr
        PUBLIC SampleApp_Periodic_DstAddr
        PUBLIC SampleApp_ProcessEvent
        FUNCTION SampleApp_ProcessEvent,021203H
        ARGFRAME XSTACK, 0, STACK
        LOCFRAME XSTACK, 16, STACK
        PUBLIC SampleApp_SendFlashMessage
        FUNCTION SampleApp_SendFlashMessage,021203H
        ARGFRAME XSTACK, 9, STACK
        ARGFRAME IOVERLAY, 0, STATIC
        ARGFRAME DOVERLAY, 0, STATIC
        LOCFRAME XSTACK, 19, STACK
        PUBLIC SampleApp_SimpleDesc
        PUBLIC SampleApp_TaskID
        PUBLIC SampleApp_TransID
        PUBLIC SampleApp_epDesc
        PUBLIC led1_flag
        PUBLIC led2_flag
        
        CFI Names cfiNames0
        CFI StackFrame CFA_SP SP IDATA
        CFI StackFrame CFA_PSP16 PSP16 XDATA
        CFI StackFrame CFA_XSP16 XSP16 XDATA
        CFI StaticOverlayFrame CFA_IOVERLAY IOVERLAY
        CFI StaticOverlayFrame CFA_DOVERLAY DOVERLAY
        CFI Resource `PSW.CY`:1, `B.BR0`:1, `B.BR1`:1, `B.BR2`:1, `B.BR3`:1
        CFI Resource `B.BR4`:1, `B.BR5`:1, `B.BR6`:1, `B.BR7`:1, `VB.BR8`:1
        CFI Resource `VB.BR9`:1, `VB.BR10`:1, `VB.BR11`:1, `VB.BR12`:1
        CFI Resource `VB.BR13`:1, `VB.BR14`:1, `VB.BR15`:1, VB:8, B:8, A:8
        CFI Resource PSW:8, DPL0:8, DPH0:8, R0:8, R1:8, R2:8, R3:8, R4:8, R5:8
        CFI Resource R6:8, R7:8, V0:8, V1:8, V2:8, V3:8, V4:8, V5:8, V6:8, V7:8
        CFI Resource V8:8, V9:8, V10:8, V11:8, V12:8, V13:8, V14:8, V15:8, SP:8
        CFI Resource PSPH:8, PSPL:8, PSP16:16, XSPH:8, XSPL:8, XSP16:16
        CFI VirtualResource ?RET:24
        CFI Resource ?BRET_EXT:8
        CFI VirtualResource ?RET_HIGH:8, ?RET_LOW:8
        CFI ResourceParts PSP16 PSPH, PSPL
        CFI ResourceParts XSP16 XSPH, XSPL
        CFI ResourceParts ?RET ?BRET_EXT, ?RET_HIGH, ?RET_LOW
        CFI EndNames cfiNames0
        
        CFI Common cfiCommon0 Using cfiNames0
        CFI CodeAlign 1
        CFI DataAlign -1
        CFI ReturnAddress ?RET CODE
        CFI CFA_DOVERLAY Used
        CFI CFA_IOVERLAY Used
        CFI CFA_SP SP+-3
        CFI CFA_PSP16 PSP16+0
        CFI CFA_XSP16 XSP16+0
        CFI `PSW.CY` SameValue
        CFI `B.BR0` SameValue
        CFI `B.BR1` SameValue
        CFI `B.BR2` SameValue
        CFI `B.BR3` SameValue
        CFI `B.BR4` SameValue
        CFI `B.BR5` SameValue
        CFI `B.BR6` SameValue
        CFI `B.BR7` SameValue
        CFI `VB.BR8` SameValue
        CFI `VB.BR9` SameValue
        CFI `VB.BR10` SameValue
        CFI `VB.BR11` SameValue
        CFI `VB.BR12` SameValue
        CFI `VB.BR13` SameValue
        CFI `VB.BR14` SameValue
        CFI `VB.BR15` SameValue
        CFI VB SameValue
        CFI B Undefined
        CFI A Undefined
        CFI PSW SameValue
        CFI DPL0 SameValue
        CFI DPH0 SameValue
        CFI R0 Undefined
        CFI R1 Undefined
        CFI R2 Undefined
        CFI R3 Undefined
        CFI R4 Undefined
        CFI R5 Undefined
        CFI R6 SameValue
        CFI R7 SameValue
        CFI V0 SameValue
        CFI V1 SameValue
        CFI V2 SameValue
        CFI V3 SameValue
        CFI V4 SameValue
        CFI V5 SameValue
        CFI V6 SameValue
        CFI V7 SameValue
        CFI V8 SameValue
        CFI V9 SameValue
        CFI V10 SameValue
        CFI V11 SameValue
        CFI V12 SameValue
        CFI V13 SameValue
        CFI V14 SameValue
        CFI V15 SameValue
        CFI PSPH Undefined
        CFI PSPL Undefined
        CFI XSPH Undefined
        CFI XSPL Undefined
        CFI ?RET Concat
        CFI ?BRET_EXT Frame(CFA_SP, 3)
        CFI ?RET_HIGH Frame(CFA_SP, 2)
        CFI ?RET_LOW Frame(CFA_SP, 1)
        CFI EndCommon cfiCommon0
        
MT_UartInit         SYMBOL "MT_UartInit"
MT_UartRegisterTaskID SYMBOL "MT_UartRegisterTaskID"
HalUARTWrite        SYMBOL "HalUARTWrite"
osal_memset         SYMBOL "osal_memset"
afRegister          SYMBOL "afRegister"
RegisterForKeys     SYMBOL "RegisterForKeys"
osal_memcpy         SYMBOL "osal_memcpy"
aps_AddGroup        SYMBOL "aps_AddGroup"
HalLcdWriteString   SYMBOL "HalLcdWriteString"
osal_msg_receive    SYMBOL "osal_msg_receive"
memcmp              SYMBOL "memcmp"
HalLedSet           SYMBOL "HalLedSet"
osal_msg_deallocate SYMBOL "osal_msg_deallocate"
AF_DataRequest      SYMBOL "AF_DataRequest"
??AF_DataRequest?relay SYMBOL "?relay", AF_DataRequest
??HalLcdWriteString?relay SYMBOL "?relay", HalLcdWriteString
??HalLedSet?relay   SYMBOL "?relay", HalLedSet
??HalUARTWrite?relay SYMBOL "?relay", HalUARTWrite
??MT_UartInit?relay SYMBOL "?relay", MT_UartInit
??MT_UartRegisterTaskID?relay SYMBOL "?relay", MT_UartRegisterTaskID
??RegisterForKeys?relay SYMBOL "?relay", RegisterForKeys
??afRegister?relay  SYMBOL "?relay", afRegister
??aps_AddGroup?relay SYMBOL "?relay", aps_AddGroup
??memcmp?relay      SYMBOL "?relay", memcmp
??osal_memcpy?relay SYMBOL "?relay", osal_memcpy
??osal_memset?relay SYMBOL "?relay", osal_memset
??osal_msg_deallocate?relay SYMBOL "?relay", osal_msg_deallocate
??osal_msg_receive?relay SYMBOL "?relay", osal_msg_receive
SampleApp_HandleKeys SYMBOL "SampleApp_HandleKeys"
??SampleApp_HandleKeys?relay SYMBOL "?relay", SampleApp_HandleKeys
SampleApp_Init      SYMBOL "SampleApp_Init"
??SampleApp_Init?relay SYMBOL "?relay", SampleApp_Init
SampleApp_ProcessEvent SYMBOL "SampleApp_ProcessEvent"
??SampleApp_ProcessEvent?relay SYMBOL "?relay", SampleApp_ProcessEvent
SampleApp_SendFlashMessage SYMBOL "SampleApp_SendFlashMessage"
??SampleApp_SendFlashMessage?relay SYMBOL "?relay", SampleApp_SendFlashMessage

        EXTERN MT_UartInit
        FUNCTION MT_UartInit,0202H
        ARGFRAME ISTACK, 0, STACK
        ARGFRAME PSTACK, 0, STACK
        ARGFRAME XSTACK, 21, STACK
        ARGFRAME IOVERLAY, 0, STATIC
        ARGFRAME DOVERLAY, 0, STATIC
        EXTERN MT_UartRegisterTaskID
        FUNCTION MT_UartRegisterTaskID,0202H
        ARGFRAME ISTACK, 0, STACK
        ARGFRAME PSTACK, 0, STACK
        ARGFRAME XSTACK, 21, STACK
        ARGFRAME IOVERLAY, 0, STATIC
        ARGFRAME DOVERLAY, 0, STATIC
        EXTERN HalUARTWrite
        FUNCTION HalUARTWrite,0202H
        ARGFRAME ISTACK, 0, STACK
        ARGFRAME PSTACK, 0, STACK
        ARGFRAME XSTACK, 21, STACK
        ARGFRAME IOVERLAY, 0, STATIC
        ARGFRAME DOVERLAY, 0, STATIC
        EXTERN osal_memset
        FUNCTION osal_memset,0202H
        ARGFRAME ISTACK, 0, STACK
        ARGFRAME PSTACK, 0, STACK
        ARGFRAME XSTACK, 21, STACK
        ARGFRAME IOVERLAY, 0, STATIC
        ARGFRAME DOVERLAY, 0, STATIC
        EXTERN afRegister
        FUNCTION afRegister,0202H
        ARGFRAME ISTACK, 0, STACK
        ARGFRAME PSTACK, 0, STACK
        ARGFRAME XSTACK, 21, STACK
        ARGFRAME IOVERLAY, 0, STATIC
        ARGFRAME DOVERLAY, 0, STATIC
        EXTERN RegisterForKeys
        FUNCTION RegisterForKeys,0202H
        ARGFRAME ISTACK, 0, STACK
        ARGFRAME PSTACK, 0, STACK
        ARGFRAME XSTACK, 21, STACK
        ARGFRAME IOVERLAY, 0, STATIC
        ARGFRAME DOVERLAY, 0, STATIC
        EXTERN osal_memcpy
        FUNCTION osal_memcpy,0202H
        ARGFRAME ISTACK, 0, STACK
        ARGFRAME PSTACK, 0, STACK
        ARGFRAME XSTACK, 24, STACK
        ARGFRAME IOVERLAY, 0, STATIC
        ARGFRAME DOVERLAY, 0, STATIC
        EXTERN aps_AddGroup
        FUNCTION aps_AddGroup,0202H
        ARGFRAME ISTACK, 0, STACK
        ARGFRAME PSTACK, 0, STACK
        ARGFRAME XSTACK, 21, STACK
        ARGFRAME IOVERLAY, 0, STATIC
        ARGFRAME DOVERLAY, 0, STATIC
        EXTERN HalLcdWriteString
        FUNCTION HalLcdWriteString,0202H
        ARGFRAME ISTACK, 0, STACK
        ARGFRAME PSTACK, 0, STACK
        ARGFRAME XSTACK, 21, STACK
        ARGFRAME IOVERLAY, 0, STATIC
        ARGFRAME DOVERLAY, 0, STATIC
        EXTERN osal_msg_receive
        FUNCTION osal_msg_receive,0202H
        ARGFRAME ISTACK, 0, STACK
        ARGFRAME PSTACK, 0, STACK
        ARGFRAME XSTACK, 14, STACK
        ARGFRAME IOVERLAY, 0, STATIC
        ARGFRAME DOVERLAY, 0, STATIC
        EXTERN memcmp
        FUNCTION memcmp,010202H
        ARGFRAME ISTACK, 0, STACK
        ARGFRAME PSTACK, 0, STACK
        ARGFRAME XSTACK, 16, STACK
        ARGFRAME IOVERLAY, 0, STATIC
        ARGFRAME DOVERLAY, 0, STATIC
        EXTERN HalLedSet
        FUNCTION HalLedSet,0202H
        ARGFRAME ISTACK, 0, STACK
        ARGFRAME PSTACK, 0, STACK
        ARGFRAME XSTACK, 14, STACK
        ARGFRAME IOVERLAY, 0, STATIC
        ARGFRAME DOVERLAY, 0, STATIC
        EXTERN osal_msg_deallocate
        FUNCTION osal_msg_deallocate,0202H
        ARGFRAME ISTACK, 0, STACK
        ARGFRAME PSTACK, 0, STACK
        ARGFRAME XSTACK, 14, STACK
        ARGFRAME IOVERLAY, 0, STATIC
        ARGFRAME DOVERLAY, 0, STATIC
        EXTERN AF_DataRequest
        FUNCTION AF_DataRequest,0202H
        ARGFRAME ISTACK, 0, STACK
        ARGFRAME PSTACK, 0, STACK
        ARGFRAME XSTACK, 19, STACK
        ARGFRAME IOVERLAY, 0, STATIC
        ARGFRAME DOVERLAY, 0, STATIC
        EXTERN ??AF_DataRequest?relay
        FUNCTION ??AF_DataRequest?relay,00H
        EXTERN ??HalLcdWriteString?relay
        FUNCTION ??HalLcdWriteString?relay,00H
        EXTERN ??HalLedSet?relay
        FUNCTION ??HalLedSet?relay,00H
        EXTERN ??HalUARTWrite?relay
        FUNCTION ??HalUARTWrite?relay,00H
        EXTERN ??MT_UartInit?relay
        FUNCTION ??MT_UartInit?relay,00H
        EXTERN ??MT_UartRegisterTaskID?relay
        FUNCTION ??MT_UartRegisterTaskID?relay,00H
        EXTERN ??RegisterForKeys?relay
        FUNCTION ??RegisterForKeys?relay,00H
        EXTERN ??afRegister?relay
        FUNCTION ??afRegister?relay,00H
        EXTERN ??aps_AddGroup?relay
        FUNCTION ??aps_AddGroup?relay,00H
        EXTERN ??memcmp?relay
        FUNCTION ??memcmp?relay,00H
        EXTERN ??osal_memcpy?relay
        FUNCTION ??osal_memcpy?relay,00H
        EXTERN ??osal_memset?relay
        FUNCTION ??osal_memset?relay,00H
        EXTERN ??osal_msg_deallocate?relay
        FUNCTION ??osal_msg_deallocate?relay,00H
        EXTERN ??osal_msg_receive?relay
        FUNCTION ??osal_msg_receive?relay,00H

// D:\Program field\¶àÖÕ¶ËÊý¾ÝZigbee×éÍøWiFi·¢ËÍµ½ONENET\¶àÖÕ¶ËÊý¾ÝZigbee×éÍøWiFi·¢ËÍµ½ONENET\ZStack-CC2530-2.3.0-1.4.0\Projects\zstack\Samples\SampleApp\CC2530DB\EndDeviceEB2.c
//    1 /**************************************************************************************************
//    2   Filename:       SampleApp.c
//    3   Revised:        $Date: 2009-03-18 15:56:27 -0700 (Wed, 18 Mar 2009) $
//    4   Revision:       $Revision: 19453 $
//    5 
//    6   Description:    Sample Application (no Profile).
//    7 
//    8 
//    9   Copyright 2007 Texas Instruments Incorporated. All rights reserved.
//   10 
//   11   IMPORTANT: Your use of this Software is limited to those specific rights
//   12   granted under the terms of a software license agreement between the user
//   13   who downloaded the software, his/her employer (which must be your employer)
//   14   and Texas Instruments Incorporated (the "License").  You may not use this
//   15   Software unless you agree to abide by the terms of the License. The License
//   16   limits your use, and you acknowledge, that the Software may not be modified,
//   17   copied or distributed unless embedded on a Texas Instruments microcontroller
//   18   or used solely and exclusively in conjunction with a Texas Instruments radio
//   19   frequency transceiver, which is integrated into your product.  Other than for
//   20   the foregoing purpose, you may not use, reproduce, copy, prepare derivative
//   21   works of, modify, distribute, perform, display or sell this Software and/or
//   22   its documentation for any purpose.cs tx
//   23 
//   24   YOU FURTHER ACKNOWLEDGE AND AGREE THAT THE SOFTWARE AND DOCUMENTATION ARE
//   25   PROVIDED  AS IS?WITHOUT WARRANTY OF ANY KIND, EITHER EXPRESS OR IMPLIED,
//   26   INCLUDING WITHOUT LIMITATION, ANY WARRANTY OF MERCHANTABILITY, TITLE,
//   27   NON-INFRINGEMENT AND FITNESS FOR A PARTICULAR PURPOSE. IN NO EVENT SHALL
//   28   TEXAS INSTRUMENTS OR ITS LICENSORS BE LIABLE OR OBLIGATED UNDER CONTRACT,
//   29   NEGLIGENCE, STRICT LIABILITY, CONTRIBUTION, BREACH OF WARRANTY, OR OTHER
//   30   LEGAL EQUITABLE THEORY ANY DIRECT OR INDIRECT DAMAGES OR EXPENSES
//   31   INCLUDING BUT NOT LIMITED TO ANY INCIDENTAL, SPECIAL, INDIRECT, PUNITIVE
//   32   OR CONSEQUENTIAL DAMAGES, LOST PROFITS OR LOST DATA, COST OF PROCUREMENT
//   33   OF SUBSTITUTE GOODS, TECHNOLOGY, SERVICES, OR ANY CLAIMS BY THIRD PARTIES
//   34   (INCLUDING BUT NOT LIMITED TO ANY DEFENSE THEREOF), OR OTHER SIMILAR COSTS.
//   35 
//   36   Should you have any questions regarding your right to use this Software,
//   37   contact Texas Instruments Incorporated at www.TI.com.
//   38 **************************************************************************************************/
//   39 
//   40 /*********************************************************************
//   41   This application isn't intended to do anything useful, it is
//   42   intended to be a simple example of an application's structure.
//   43 
//   44   This application sends it's messages either as broadcast or
//   45   broadcast filtered group messages.  The other (more normal)
//   46   message addressing is unicast.  Most of the other sample
//   47   applications are written to support the unicast message model.
//   48 
//   49   Key control:
//   50     SW1:  Sends a flash command to all devices in Group 1.
//   51     SW2:  Adds/Removes (toggles) this device in and out
//   52           of Group 1.  This will enable and disable the
//   53           reception of the flash command.
//   54 *********************************************************************/
//   55 
//   56 /*********************************************************************
//   57  * INCLUDES
//   58  */
//   59 #include "OSAL.h"
//   60 #include "ZGlobals.h"
//   61 #include "AF.h"
//   62 #include "aps_groups.h"
//   63 #include "ZDApp.h"
//   64 
//   65 #include "SampleApp.h"
//   66 #include "SampleAppHw.h"
//   67 
//   68 #include "OnBoard.h"

        ASEGN SFR_AN:DATA:NOROOT,0f3H
// unsigned char volatile __sfr P0SEL
P0SEL:
        DATA8
        DS 1
//   69 
//   70 /* HAL */
//   71 #include "hal_lcd.h"
//   72 #include "hal_led.h"
//   73 #include "hal_key.h"
//   74 #include "MT_UART.h"
//   75 #include "MT_APP.h"
//   76 #include "MT.h"
//   77 #include "DHT11.h"
//   78 #include "stdio.h"
//   79 #include "string.h"

        RSEG XDATA_Z:XDATA:NOROOT(0)
        DATA8
//   80 uint8 led1_flag = 0;
led1_flag:
        DS 1
        REQUIRE __INIT_XDATA_Z

        RSEG XDATA_Z:XDATA:NOROOT(0)
        DATA8
//   81 uint8 SampleAppPeriodicCounter = 0;
SampleAppPeriodicCounter:
        DS 1
        REQUIRE __INIT_XDATA_Z

        RSEG XDATA_Z:XDATA:NOROOT(0)
        DATA8
//   82 uint8 SampleAppFlashCounter = 0;
SampleAppFlashCounter:
        DS 1
        REQUIRE __INIT_XDATA_Z

        RSEG XDATA_Z:XDATA:NOROOT(0)
        DATA8
//   83 uint8 led2_flag = 0;
led2_flag:
        DS 1
        REQUIRE __INIT_XDATA_Z
//   84 /*********************************************************************
//   85  * MACROS
//   86  */
//   87 
//   88 /*********************************************************************
//   89  * CONSTANTS
//   90  */
//   91 
//   92 /*********************************************************************
//   93  * TYPEDEFS
//   94  */
//   95 
//   96 /*********************************************************************
//   97  * GLOBAL VARIABLES
//   98  */
//   99 
//  100 // This list should be filled with Application specific Cluster IDs.

        RSEG XDATA_ROM_C:CONST:REORDER:NOROOT(0)
        DATA32
//  101 const cId_t SampleApp_ClusterList[SAMPLEAPP_MAX_CLUSTERS] =
SampleApp_ClusterList:
        DATA16
        DW 1
        DW 2
//  102     {
//  103         SAMPLEAPP_PERIODIC_CLUSTERID,
//  104         SAMPLEAPP_FLASH_CLUSTERID};
//  105 

        RSEG XDATA_ROM_C:CONST:REORDER:NOROOT(0)
        DATA8
//  106 const SimpleDescriptionFormat_t SampleApp_SimpleDesc =
SampleApp_SimpleDesc:
        DB 20
        DATA16
        DW 3848
        DW 1
        DATA8
        DB 0
        DB 2
        DATA16
        DW SampleApp_ClusterList
        DATA8
        DB 2
        DATA16
        DW SampleApp_ClusterList
//  107     {
//  108         SAMPLEAPP_ENDPOINT,             //  int Endpoint;
//  109         SAMPLEAPP_PROFID,               //  uint16 AppProfId[2];
//  110         SAMPLEAPP_DEVICEID,             //  uint16 AppDeviceId[2];
//  111         SAMPLEAPP_DEVICE_VERSION,       //  int   AppDevVer:4;
//  112         SAMPLEAPP_FLAGS,                //  int   AppFlags:4;
//  113         SAMPLEAPP_MAX_CLUSTERS,         //  uint8  AppNumInClusters;
//  114         (cId_t *)SampleApp_ClusterList, //  uint8 *pAppInClusterList;
//  115         SAMPLEAPP_MAX_CLUSTERS,         //  uint8  AppNumInClusters;
//  116         (cId_t *)SampleApp_ClusterList  //  uint8 *pAppInClusterList;
//  117 };
//  118 
//  119 // This is the Endpoint/Interface description.  It is defined here, but
//  120 // filled-in in SampleApp_Init().  Another way to go would be to fill
//  121 // in the structure here and make it a "const" (in code space).  The
//  122 // way it's defined in this sample app it is define in RAM.

        RSEG XDATA_Z:XDATA:NOROOT(0)
        DATA8
//  123 endPointDesc_t SampleApp_epDesc;
SampleApp_epDesc:
        DS 6
        REQUIRE __INIT_XDATA_Z
//  124 
//  125 /*********************************************************************
//  126  * EXTERNAL VARIABLES
//  127  */
//  128 
//  129 /*********************************************************************
//  130  * EXTERNAL FUNCTIONS
//  131  */
//  132 
//  133 /*********************************************************************
//  134  * LOCAL VARIABLES
//  135  */

        RSEG XDATA_Z:XDATA:NOROOT(0)
        DATA8
//  136 uint8 SampleApp_TaskID; // Task ID for internal task/event processing
SampleApp_TaskID:
        DS 1
        REQUIRE __INIT_XDATA_Z
//  137                         // This variable will be received when
//  138                         // SampleApp_Init() is called.

        RSEG XDATA_Z:XDATA:NOROOT(0)
        DATA8
//  139 devStates_t SampleApp_NwkState;
SampleApp_NwkState:
        DS 1
        REQUIRE __INIT_XDATA_Z
//  140 

        RSEG XDATA_Z:XDATA:NOROOT(0)
        DATA8
//  141 uint8 SampleApp_TransID; // This is the unique message ID (counter)
SampleApp_TransID:
        DS 1
        REQUIRE __INIT_XDATA_Z
//  142 

        RSEG XDATA_Z:XDATA:NOROOT(0)
        DATA8
//  143 afAddrType_t SampleApp_Periodic_DstAddr; // ?
SampleApp_Periodic_DstAddr:
        DS 12
        REQUIRE __INIT_XDATA_Z

        RSEG XDATA_Z:XDATA:NOROOT(0)
        DATA8
//  144 afAddrType_t SampleApp_Flash_DstAddr;    // ï¿½ï¿½
SampleApp_Flash_DstAddr:
        DS 12
        REQUIRE __INIT_XDATA_Z

        RSEG XDATA_Z:XDATA:NOROOT(0)
        DATA8
//  145 afAddrType_t SampleApp_P2P_DstAddr;      // ?
SampleApp_P2P_DstAddr:
        DS 12
        REQUIRE __INIT_XDATA_Z
//  146 

        RSEG XDATA_Z:XDATA:NOROOT(0)
        DATA8
//  147 aps_Group_t SampleApp_Group;
SampleApp_Group:
        DS 18
        REQUIRE __INIT_XDATA_Z
//  148 
//  149 
//  150 
//  151 /*********************************************************************
//  152  * LOCAL FUNCTIONS
//  153  */
//  154 void SampleApp_HandleKeys(uint8 shift, uint8 keys);
//  155 void SampleApp_MessageMSGCB(afIncomingMSGPacket_t *pckt);
//  156 void SampleApp_SendPeriodicMessage(void);
//  157 void SampleApp_SendFlashMessage(uint16 flashTime);
//  158 /*********************************************************************
//  159  * NETWORK LAYER CALLBACKS
//  160  */
//  161 
//  162 /*********************************************************************
//  163  * PUBLIC FUNCTIONS
//  164  */
//  165 
//  166 /*********************************************************************
//  167  * @fn      SampleApp_Init
//  168  *
//  169  * @brief   Initialization function for the Generic App Task.
//  170  *          This is called during initialization and should contain
//  171  *          any application specific initialization (ie. hardware
//  172  *          initialization/setup, table initialization, power up
//  173  *          notificaiton ... ).
//  174  *
//  175  * @param   task_id - the ID assigned by OSAL.  This ID should be
//  176  *                    used to send messages and set timers.
//  177  *
//  178  * @return  none
//  179  */

        RSEG BANKED_CODE:CODE:NOROOT(0)
//  180 void SampleApp_Init(uint8 task_id)
SampleApp_Init:
        CFI Block cfiBlock0 Using cfiCommon0
        CFI Function SampleApp_Init
        CODE
//  181 {
        FUNCALL SampleApp_Init, MT_UartInit
        LOCFRAME ISTACK, 0, STACK
        LOCFRAME PSTACK, 0, STACK
        LOCFRAME XSTACK, 21, STACK
        LOCFRAME IOVERLAY, 0, STATIC
        LOCFRAME DOVERLAY, 0, STATIC
        ARGFRAME ISTACK, 0, STACK
        ARGFRAME PSTACK, 0, STACK
        ARGFRAME XSTACK, 21, STACK
        ARGFRAME IOVERLAY, 0, STATIC
        ARGFRAME DOVERLAY, 0, STATIC
        FUNCALL SampleApp_Init, MT_UartRegisterTaskID
        LOCFRAME ISTACK, 0, STACK
        LOCFRAME PSTACK, 0, STACK
        LOCFRAME XSTACK, 21, STACK
        LOCFRAME IOVERLAY, 0, STATIC
        LOCFRAME DOVERLAY, 0, STATIC
        ARGFRAME ISTACK, 0, STACK
        ARGFRAME PSTACK, 0, STACK
        ARGFRAME XSTACK, 21, STACK
        ARGFRAME IOVERLAY, 0, STATIC
        ARGFRAME DOVERLAY, 0, STATIC
        FUNCALL SampleApp_Init, HalUARTWrite
        LOCFRAME ISTACK, 0, STACK
        LOCFRAME PSTACK, 0, STACK
        LOCFRAME XSTACK, 21, STACK
        LOCFRAME IOVERLAY, 0, STATIC
        LOCFRAME DOVERLAY, 0, STATIC
        ARGFRAME ISTACK, 0, STACK
        ARGFRAME PSTACK, 0, STACK
        ARGFRAME XSTACK, 21, STACK
        ARGFRAME IOVERLAY, 0, STATIC
        ARGFRAME DOVERLAY, 0, STATIC
        FUNCALL SampleApp_Init, osal_memset
        LOCFRAME ISTACK, 0, STACK
        LOCFRAME PSTACK, 0, STACK
        LOCFRAME XSTACK, 21, STACK
        LOCFRAME IOVERLAY, 0, STATIC
        LOCFRAME DOVERLAY, 0, STATIC
        ARGFRAME ISTACK, 0, STACK
        ARGFRAME PSTACK, 0, STACK
        ARGFRAME XSTACK, 21, STACK
        ARGFRAME IOVERLAY, 0, STATIC
        ARGFRAME DOVERLAY, 0, STATIC
        FUNCALL SampleApp_Init, HalUARTWrite
        LOCFRAME ISTACK, 0, STACK
        LOCFRAME PSTACK, 0, STACK
        LOCFRAME XSTACK, 21, STACK
        LOCFRAME IOVERLAY, 0, STATIC
        LOCFRAME DOVERLAY, 0, STATIC
        ARGFRAME ISTACK, 0, STACK
        ARGFRAME PSTACK, 0, STACK
        ARGFRAME XSTACK, 21, STACK
        ARGFRAME IOVERLAY, 0, STATIC
        ARGFRAME DOVERLAY, 0, STATIC
        FUNCALL SampleApp_Init, afRegister
        LOCFRAME ISTACK, 0, STACK
        LOCFRAME PSTACK, 0, STACK
        LOCFRAME XSTACK, 21, STACK
        LOCFRAME IOVERLAY, 0, STATIC
        LOCFRAME DOVERLAY, 0, STATIC
        ARGFRAME ISTACK, 0, STACK
        ARGFRAME PSTACK, 0, STACK
        ARGFRAME XSTACK, 21, STACK
        ARGFRAME IOVERLAY, 0, STATIC
        ARGFRAME DOVERLAY, 0, STATIC
        FUNCALL SampleApp_Init, RegisterForKeys
        LOCFRAME ISTACK, 0, STACK
        LOCFRAME PSTACK, 0, STACK
        LOCFRAME XSTACK, 21, STACK
        LOCFRAME IOVERLAY, 0, STATIC
        LOCFRAME DOVERLAY, 0, STATIC
        ARGFRAME ISTACK, 0, STACK
        ARGFRAME PSTACK, 0, STACK
        ARGFRAME XSTACK, 21, STACK
        ARGFRAME IOVERLAY, 0, STATIC
        ARGFRAME DOVERLAY, 0, STATIC
        FUNCALL SampleApp_Init, osal_memcpy
        LOCFRAME ISTACK, 0, STACK
        LOCFRAME PSTACK, 0, STACK
        LOCFRAME XSTACK, 24, STACK
        LOCFRAME IOVERLAY, 0, STATIC
        LOCFRAME DOVERLAY, 0, STATIC
        ARGFRAME ISTACK, 0, STACK
        ARGFRAME PSTACK, 0, STACK
        ARGFRAME XSTACK, 24, STACK
        ARGFRAME IOVERLAY, 0, STATIC
        ARGFRAME DOVERLAY, 0, STATIC
        FUNCALL SampleApp_Init, aps_AddGroup
        LOCFRAME ISTACK, 0, STACK
        LOCFRAME PSTACK, 0, STACK
        LOCFRAME XSTACK, 21, STACK
        LOCFRAME IOVERLAY, 0, STATIC
        LOCFRAME DOVERLAY, 0, STATIC
        ARGFRAME ISTACK, 0, STACK
        ARGFRAME PSTACK, 0, STACK
        ARGFRAME XSTACK, 21, STACK
        ARGFRAME IOVERLAY, 0, STATIC
        ARGFRAME DOVERLAY, 0, STATIC
        FUNCALL SampleApp_Init, HalLcdWriteString
        LOCFRAME ISTACK, 0, STACK
        LOCFRAME PSTACK, 0, STACK
        LOCFRAME XSTACK, 21, STACK
        LOCFRAME IOVERLAY, 0, STATIC
        LOCFRAME DOVERLAY, 0, STATIC
        ARGFRAME ISTACK, 0, STACK
        ARGFRAME PSTACK, 0, STACK
        ARGFRAME XSTACK, 21, STACK
        ARGFRAME IOVERLAY, 0, STATIC
        ARGFRAME DOVERLAY, 0, STATIC
        MOV     A,#-0xb
        LCALL   ?BANKED_ENTER_XDATA
        CFI DPH0 load(1, XDATA, add(CFA_XSP16, literal(-1)))
        CFI DPL0 load(1, XDATA, add(CFA_XSP16, literal(-2)))
        CFI ?BRET_EXT load(1, XDATA, add(CFA_XSP16, literal(-3)))
        CFI ?RET_HIGH load(1, XDATA, add(CFA_XSP16, literal(-4)))
        CFI ?RET_LOW load(1, XDATA, add(CFA_XSP16, literal(-5)))
        CFI R7 load(1, XDATA, add(CFA_XSP16, literal(-6)))
        CFI V2 load(1, XDATA, add(CFA_XSP16, literal(-7)))
        CFI V1 load(1, XDATA, add(CFA_XSP16, literal(-8)))
        CFI V0 load(1, XDATA, add(CFA_XSP16, literal(-9)))
        CFI VB load(1, XDATA, add(CFA_XSP16, literal(-10)))
        CFI R6 load(1, XDATA, add(CFA_XSP16, literal(-11)))
        CFI CFA_SP SP+0
        CFI CFA_XSP16 add(XSP16, 11)
        ; Saved register size: 11
        ; Auto size: 10
        MOV     A,#-0xa
        LCALL   ?ALLOC_XSTACK8
        CFI CFA_XSP16 add(XSP16, 21)
        MOV     A,R1
        MOV     R6,A
//  182 
//  183   unsigned char tmp[10];
//  184   SampleApp_TaskID = task_id;
        MOV     DPTR,#SampleApp_TaskID
        MOVX    @DPTR,A
//  185   SampleApp_NwkState = DEV_INIT;
        MOV     DPTR,#SampleApp_NwkState
        MOV     A,#0x1
        MOVX    @DPTR,A
//  186   SampleApp_TransID = 0;
        MOV     DPTR,#SampleApp_TransID
        CLR     A
        MOVX    @DPTR,A
//  187 
//  188   MT_UartInit();                  //   ? ?
        ; Setup parameters for call to function MT_UartInit
        LCALL   ??MT_UartInit?relay
//  189   MT_UartRegisterTaskID(task_id); //? ?
        ; Setup parameters for call to function MT_UartRegisterTaskID
        MOV     A,R6
        MOV     R1,A
        LCALL   ??MT_UartRegisterTaskID?relay
//  190   HalUARTWrite(0, "EndDevice-2\r\n", 13);
        ; Setup parameters for call to function HalUARTWrite
        MOV     R4,#0xd
        MOV     R5,#0x0
        MOV     R2,#`?<Constant "EndDevice-2\\r\\n">` & 0xff
        MOV     R3,#(`?<Constant "EndDevice-2\\r\\n">` >> 8) & 0xff
        MOV     R1,#0x0
        LCALL   ??HalUARTWrite?relay
//  191   osal_memset(tmp, 0, 10);
        ; Setup parameters for call to function osal_memset
        MOV     R4,#0xa
        MOV     R5,#0x0
        MOV     R1,#0x0
        MOV     DPL,?XSP + 0
        MOV     DPH,?XSP + 1
        MOV     R2,DPL
        MOV     R3,DPH
        LCALL   ??osal_memset?relay
//  192   tmp[0] = HAL_UART_DMA + 0x30;
        MOV     DPL,?XSP + 0
        MOV     DPH,?XSP + 1
        MOV     A,#0x31
        MOVX    @DPTR,A
//  193   tmp[1] = HAL_UART_ISR + 0x30;
        MOV     A,#0x1
        LCALL   ?XSTACK_DISP0_8
        MOV     A,#0x32
        MOVX    @DPTR,A
//  194   tmp[2] = HAL_UART_USB + 0x30;
        MOV     A,#0x2
        LCALL   ?XSTACK_DISP0_8
        MOV     A,#0x30
        MOVX    @DPTR,A
//  195   HalUARTWrite(0, tmp, 6);
        ; Setup parameters for call to function HalUARTWrite
        MOV     R4,#0x6
        MOV     R5,#0x0
        MOV     DPL,?XSP + 0
        MOV     DPH,?XSP + 1
        MOV     R2,DPL
        MOV     R3,DPH
        MOV     R1,#0x0
        LCALL   ??HalUARTWrite?relay
//  196   P0SEL &= 0x7f; // P0_7   ï¿½ï¿½ ?  io
        ANL     0xf3,#0x7f
//  197 
//  198   // Device hardware initialization can be added here or in main() (Zmain.c).
//  199   // If the hardware is application specific - add it here.
//  200   // If the hardware is other parts of the device add it in main().
//  201 
//  202 #if defined(BUILD_ALL_DEVICES)
//  203   // The "Demo" target is setup to have BUILD_ALL_DEVICES and HOLD_AUTO_START
//  204   // We are looking at a jumper (defined in SampleAppHw.c) to be jumpered
//  205   // together - if they are - we will start up a coordinator. Otherwise,
//  206   // the device will start as a router.
//  207   if (readCoordinatorJumper())
//  208     zgDeviceLogicalType = ZG_DEVICETYPE_COORDINATOR;
//  209   else
//  210     zgDeviceLogicalType = ZG_DEVICETYPE_ROUTER;
//  211 #endif // BUILD_ALL_DEVICES
//  212 
//  213 #if defined(HOLD_AUTO_START)
//  214   // HOLD_AUTO_START is a compile option that will surpress ZDApp
//  215   //  from starting the device and wait for the application to
//  216   //  start the device.
//  217   ZDOInitDevice(0);
//  218 #endif
//  219 
//  220   // Setup for the periodic message's destination address
//  221   // Broadcast to everyone
//  222   SampleApp_Periodic_DstAddr.addrMode = (afAddrMode_t)Addr16Bit;
        MOV     DPTR,#SampleApp_Periodic_DstAddr + 8
        MOV     A,#0x2
        MOVX    @DPTR,A
//  223   SampleApp_Periodic_DstAddr.endPoint = SAMPLEAPP_ENDPOINT;
        INC     DPTR
        MOV     A,#0x14
        MOVX    @DPTR,A
//  224   SampleApp_Periodic_DstAddr.addr.shortAddr = 0x0000;
        MOV     DPTR,#SampleApp_Periodic_DstAddr
        CLR     A
        MOVX    @DPTR,A
        INC     DPTR
        MOVX    @DPTR,A
//  225 
//  226   // Setup for the flash command's destination address - Group 1
//  227   SampleApp_Flash_DstAddr.addrMode = (afAddrMode_t)afAddrGroup;
        MOV     DPTR,#SampleApp_Flash_DstAddr + 8
        INC     A
        MOVX    @DPTR,A
//  228   SampleApp_Flash_DstAddr.endPoint = SAMPLEAPP_ENDPOINT;
        INC     DPTR
        MOV     A,#0x14
        MOVX    @DPTR,A
//  229   SampleApp_Flash_DstAddr.addr.shortAddr = SAMPLEAPP_FLASH_GROUP;
        MOV     DPTR,#SampleApp_Flash_DstAddr
        MOV     A,#0x1
        MOVX    @DPTR,A
        INC     DPTR
        CLR     A
        MOVX    @DPTR,A
//  230 
//  231   SampleApp_P2P_DstAddr.addrMode = (afAddrMode_t)AddrBroadcast; // ?
        MOV     DPTR,#SampleApp_P2P_DstAddr + 8
        MOV     A,#0xf
        MOVX    @DPTR,A
//  232   SampleApp_P2P_DstAddr.endPoint = SAMPLEAPP_ENDPOINT;
        INC     DPTR
        MOV     A,#0x14
        MOVX    @DPTR,A
//  233   SampleApp_P2P_DstAddr.addr.shortAddr = 0xFFFF; //    ï¿½ï¿½
        MOV     DPTR,#SampleApp_P2P_DstAddr
        MOV     A,#-0x1
        MOVX    @DPTR,A
        INC     DPTR
        MOVX    @DPTR,A
//  234 
//  235   // Fill out the endpoint description.
//  236   SampleApp_epDesc.endPoint = SAMPLEAPP_ENDPOINT;
        MOV     DPTR,#SampleApp_epDesc
        MOV     A,#0x14
        MOVX    @DPTR,A
//  237   SampleApp_epDesc.task_id = &SampleApp_TaskID;
        INC     DPTR
        MOV     A,#SampleApp_TaskID & 0xff
        MOVX    @DPTR,A
        INC     DPTR
        MOV     A,#(SampleApp_TaskID >> 8) & 0xff
        MOVX    @DPTR,A
//  238   SampleApp_epDesc.simpleDesc = (SimpleDescriptionFormat_t *)&SampleApp_SimpleDesc;
        INC     DPTR
        MOV     A,#SampleApp_SimpleDesc & 0xff
        MOVX    @DPTR,A
        INC     DPTR
        MOV     A,#(SampleApp_SimpleDesc >> 8) & 0xff
        MOVX    @DPTR,A
//  239   SampleApp_epDesc.latencyReq = noLatencyReqs;
        INC     DPTR
        CLR     A
        MOVX    @DPTR,A
//  240 
//  241   // Register the endpoint description with the AF
//  242   afRegister(&SampleApp_epDesc);
        ; Setup parameters for call to function afRegister
        MOV     R2,#SampleApp_epDesc & 0xff
        MOV     R3,#(SampleApp_epDesc >> 8) & 0xff
        LCALL   ??afRegister?relay
//  243 
//  244   // Register for all key events - This app will handle all key events
//  245   RegisterForKeys(SampleApp_TaskID);
        ; Setup parameters for call to function RegisterForKeys
        MOV     DPTR,#SampleApp_TaskID
        MOVX    A,@DPTR
        MOV     R1,A
        LCALL   ??RegisterForKeys?relay
//  246 
//  247   // By default, all devices start out in Group 1
//  248   SampleApp_Group.ID = 0x0001;
        MOV     DPTR,#SampleApp_Group
        MOV     A,#0x1
        MOVX    @DPTR,A
        INC     DPTR
        CLR     A
        MOVX    @DPTR,A
//  249   osal_memcpy(SampleApp_Group.name, "Group 1", 7);
        ; Setup parameters for call to function osal_memcpy
        MOV     ?V0 + 0,#`?<Constant "Group 1">` & 0xff
        MOV     ?V0 + 1,#(`?<Constant "Group 1">` >> 8) & 0xff
        MOV     ?V0 + 2,A
        MOV     R0,#?V0 + 0
        LCALL   ?PUSH_XSTACK_I_THREE
        CFI CFA_XSP16 add(XSP16, 24)
        MOV     R4,#0x7
        MOV     R5,#0x0
        MOV     R2,#(SampleApp_Group + 2) & 0xff
        MOV     R3,#((SampleApp_Group + 2) >> 8) & 0xff
        LCALL   ??osal_memcpy?relay
        MOV     A,#0x3
        LCALL   ?DEALLOC_XSTACK8
        CFI CFA_XSP16 add(XSP16, 21)
//  250   aps_AddGroup(SAMPLEAPP_ENDPOINT, &SampleApp_Group);
        ; Setup parameters for call to function aps_AddGroup
        MOV     R2,#SampleApp_Group & 0xff
        MOV     R3,#(SampleApp_Group >> 8) & 0xff
        MOV     R1,#0x14
        LCALL   ??aps_AddGroup?relay
//  251 
//  252 #if defined(LCD_SUPPORTED)
//  253   HalLcdWriteString("SampleApp", HAL_LCD_LINE_1);
        ; Setup parameters for call to function HalLcdWriteString
        MOV     R1,#0x1
        MOV     R2,#`?<Constant "SampleApp">` & 0xff
        MOV     R3,#(`?<Constant "SampleApp">` >> 8) & 0xff
        LCALL   ??HalLcdWriteString?relay
//  254 #endif
//  255 }
        MOV     A,#0xa
        LCALL   ?DEALLOC_XSTACK8
        CFI CFA_XSP16 add(XSP16, 11)
        MOV     R7,#0x3
        LJMP    ?BANKED_LEAVE_XDATA
        CFI EndBlock cfiBlock0
        REQUIRE P0SEL
//  256 

        RSEG BANKED_CODE:CODE:NOROOT(0)
//  257 uint16 SampleApp_ProcessEvent(uint8 task_id, uint16 events)
SampleApp_ProcessEvent:
        CFI Block cfiBlock1 Using cfiCommon0
        CFI Function SampleApp_ProcessEvent
        CODE
//  258 {
        FUNCALL SampleApp_ProcessEvent, osal_msg_receive
        LOCFRAME ISTACK, 0, STACK
        LOCFRAME PSTACK, 0, STACK
        LOCFRAME XSTACK, 14, STACK
        LOCFRAME IOVERLAY, 0, STATIC
        LOCFRAME DOVERLAY, 0, STATIC
        ARGFRAME ISTACK, 0, STACK
        ARGFRAME PSTACK, 0, STACK
        ARGFRAME XSTACK, 14, STACK
        ARGFRAME IOVERLAY, 0, STATIC
        ARGFRAME DOVERLAY, 0, STATIC
        FUNCALL SampleApp_ProcessEvent, memcmp
        LOCFRAME ISTACK, 0, STACK
        LOCFRAME PSTACK, 0, STACK
        LOCFRAME XSTACK, 16, STACK
        LOCFRAME IOVERLAY, 0, STATIC
        LOCFRAME DOVERLAY, 0, STATIC
        ARGFRAME ISTACK, 0, STACK
        ARGFRAME PSTACK, 0, STACK
        ARGFRAME XSTACK, 16, STACK
        ARGFRAME IOVERLAY, 0, STATIC
        ARGFRAME DOVERLAY, 0, STATIC
        FUNCALL SampleApp_ProcessEvent, HalLedSet
        LOCFRAME ISTACK, 0, STACK
        LOCFRAME PSTACK, 0, STACK
        LOCFRAME XSTACK, 14, STACK
        LOCFRAME IOVERLAY, 0, STATIC
        LOCFRAME DOVERLAY, 0, STATIC
        ARGFRAME ISTACK, 0, STACK
        ARGFRAME PSTACK, 0, STACK
        ARGFRAME XSTACK, 14, STACK
        ARGFRAME IOVERLAY, 0, STATIC
        ARGFRAME DOVERLAY, 0, STATIC
        FUNCALL SampleApp_ProcessEvent, osal_msg_deallocate
        LOCFRAME ISTACK, 0, STACK
        LOCFRAME PSTACK, 0, STACK
        LOCFRAME XSTACK, 14, STACK
        LOCFRAME IOVERLAY, 0, STATIC
        LOCFRAME DOVERLAY, 0, STATIC
        ARGFRAME ISTACK, 0, STACK
        ARGFRAME PSTACK, 0, STACK
        ARGFRAME XSTACK, 14, STACK
        ARGFRAME IOVERLAY, 0, STATIC
        ARGFRAME DOVERLAY, 0, STATIC
        FUNCALL SampleApp_ProcessEvent, osal_msg_receive
        LOCFRAME ISTACK, 0, STACK
        LOCFRAME PSTACK, 0, STACK
        LOCFRAME XSTACK, 14, STACK
        LOCFRAME IOVERLAY, 0, STATIC
        LOCFRAME DOVERLAY, 0, STATIC
        ARGFRAME ISTACK, 0, STACK
        ARGFRAME PSTACK, 0, STACK
        ARGFRAME XSTACK, 14, STACK
        ARGFRAME IOVERLAY, 0, STATIC
        ARGFRAME DOVERLAY, 0, STATIC
        FUNCALL SampleApp_ProcessEvent, SampleApp_HandleKeys
        LOCFRAME ISTACK, 0, STACK
        LOCFRAME PSTACK, 0, STACK
        LOCFRAME XSTACK, 14, STACK
        LOCFRAME IOVERLAY, 0, STATIC
        LOCFRAME DOVERLAY, 0, STATIC
        ARGFRAME ISTACK, 0, STACK
        ARGFRAME PSTACK, 0, STACK
        ARGFRAME XSTACK, 14, STACK
        ARGFRAME IOVERLAY, 0, STATIC
        ARGFRAME DOVERLAY, 0, STATIC
        FUNCALL SampleApp_ProcessEvent, HalUARTWrite
        LOCFRAME ISTACK, 0, STACK
        LOCFRAME PSTACK, 0, STACK
        LOCFRAME XSTACK, 14, STACK
        LOCFRAME IOVERLAY, 0, STATIC
        LOCFRAME DOVERLAY, 0, STATIC
        ARGFRAME ISTACK, 0, STACK
        ARGFRAME PSTACK, 0, STACK
        ARGFRAME XSTACK, 14, STACK
        ARGFRAME IOVERLAY, 0, STATIC
        ARGFRAME DOVERLAY, 0, STATIC
        FUNCALL SampleApp_ProcessEvent, memcmp
        LOCFRAME ISTACK, 0, STACK
        LOCFRAME PSTACK, 0, STACK
        LOCFRAME XSTACK, 16, STACK
        LOCFRAME IOVERLAY, 0, STATIC
        LOCFRAME DOVERLAY, 0, STATIC
        ARGFRAME ISTACK, 0, STACK
        ARGFRAME PSTACK, 0, STACK
        ARGFRAME XSTACK, 16, STACK
        ARGFRAME IOVERLAY, 0, STATIC
        ARGFRAME DOVERLAY, 0, STATIC
        FUNCALL SampleApp_ProcessEvent, HalLedSet
        LOCFRAME ISTACK, 0, STACK
        LOCFRAME PSTACK, 0, STACK
        LOCFRAME XSTACK, 14, STACK
        LOCFRAME IOVERLAY, 0, STATIC
        LOCFRAME DOVERLAY, 0, STATIC
        ARGFRAME ISTACK, 0, STACK
        ARGFRAME PSTACK, 0, STACK
        ARGFRAME XSTACK, 14, STACK
        ARGFRAME IOVERLAY, 0, STATIC
        ARGFRAME DOVERLAY, 0, STATIC
        MOV     A,#-0xe
        LCALL   ?BANKED_ENTER_XDATA
        CFI DPH0 load(1, XDATA, add(CFA_XSP16, literal(-1)))
        CFI DPL0 load(1, XDATA, add(CFA_XSP16, literal(-2)))
        CFI ?BRET_EXT load(1, XDATA, add(CFA_XSP16, literal(-3)))
        CFI ?RET_HIGH load(1, XDATA, add(CFA_XSP16, literal(-4)))
        CFI ?RET_LOW load(1, XDATA, add(CFA_XSP16, literal(-5)))
        CFI R7 load(1, XDATA, add(CFA_XSP16, literal(-6)))
        CFI V5 load(1, XDATA, add(CFA_XSP16, literal(-7)))
        CFI V4 load(1, XDATA, add(CFA_XSP16, literal(-8)))
        CFI V3 load(1, XDATA, add(CFA_XSP16, literal(-9)))
        CFI V2 load(1, XDATA, add(CFA_XSP16, literal(-10)))
        CFI V1 load(1, XDATA, add(CFA_XSP16, literal(-11)))
        CFI V0 load(1, XDATA, add(CFA_XSP16, literal(-12)))
        CFI VB load(1, XDATA, add(CFA_XSP16, literal(-13)))
        CFI R6 load(1, XDATA, add(CFA_XSP16, literal(-14)))
        CFI CFA_SP SP+0
        CFI CFA_XSP16 add(XSP16, 14)
        ; Saved register size: 14
        ; Auto size: 0
        MOV     ?V0 + 2,R2
        MOV     ?V0 + 3,R3
//  259   afIncomingMSGPacket_t *MSGpkt;
//  260   (void)task_id; // Intentionally unreferenced parameter
//  261 
//  262   if (events & SYS_EVENT_MSG)
        MOV     A,R3
        ANL     A,#0x80
        JNZ     $+5
        LJMP    ??SampleApp_ProcessEvent_0 & 0xFFFF
//  263   {
//  264     MSGpkt = (afIncomingMSGPacket_t *)osal_msg_receive(SampleApp_TaskID);
        ; Setup parameters for call to function osal_msg_receive
        SJMP    ??SampleApp_ProcessEvent_1
//  265     while (MSGpkt)
//  266     {
//  267       switch (MSGpkt->hdr.event)
//  268       {
//  269       // Received when a key is pressed
//  270       case KEY_CHANGE:
//  271         SampleApp_HandleKeys(((keyChange_t *)MSGpkt)->state, ((keyChange_t *)MSGpkt)->keys);
//  272         break;
//  273 
//  274       case CMD_SERIAL_MSG:
//  275         mtOSALSerialData_t *p = (mtOSALSerialData_t *)MSGpkt; // ä¸²å£æ°æ®æé
//  276         HalUARTWrite(HAL_UART_PORT_0, &p->msg[1], p->msg[0]); // åä¸²å?åéæ°æ?        uint8 len = p->msg[0];                                // è·åæ°æ®é¿åº¦
//  277         uint8 *data_ptr = &p->msg[1];                         // æåå®éæ°æ®
//  278         if (memcmp(data_ptr, "OFF", strlen("OFF")) == 0)
//  279         {
//  280           HalLedSet(HAL_LED_3, HAL_LED_MODE_ON);
//  281         }
//  282         else if (memcmp(data_ptr, "ON", strlen("ON")) == 0)
??SampleApp_ProcessEvent_2:
        ; Setup parameters for call to function memcmp
        MOV     ?V0 + 4,#0x2
        MOV     ?V0 + 5,#0x0
        MOV     R0,#?V0 + 4
        LCALL   ?PUSH_XSTACK_I_TWO
        CFI CFA_XSP16 add(XSP16, 16)
        MOV     R4,#`?<Constant "ON">` & 0xff
        MOV     R5,#(`?<Constant "ON">` >> 8) & 0xff
        MOV     R2,?V0 + 0
        MOV     R3,?V0 + 1
        LCALL   ??memcmp?relay
        MOV     A,#0x2
        LCALL   ?DEALLOC_XSTACK8
        CFI CFA_XSP16 add(XSP16, 14)
        MOV     ?V0 + 1,R3
        MOV     A,R2
        ORL     A,?V0 + 1
        JNZ     ??SampleApp_ProcessEvent_3
//  283         {
//  284           HalLedSet(HAL_LED_3, HAL_LED_MODE_OFF);
        ; Setup parameters for call to function HalLedSet
        MOV     R2,#0x0
??SampleApp_ProcessEvent_4:
        MOV     R1,#0x4
        LCALL   ??HalLedSet?relay
//  285         }
//  286         break;
//  287 
//  288       default:
//  289         break;
//  290       }
//  291 
//  292       // Release the memory
//  293       osal_msg_deallocate((uint8 *)MSGpkt);
??SampleApp_ProcessEvent_3:
        ; Setup parameters for call to function osal_msg_deallocate
        MOV     A,R6
        MOV     R2,A
        MOV     A,R7
        MOV     R3,A
        LCALL   ??osal_msg_deallocate?relay
//  294 
//  295       // Next - if one is available
//  296       MSGpkt = (afIncomingMSGPacket_t *)osal_msg_receive(SampleApp_TaskID);
        ; Setup parameters for call to function osal_msg_receive
??SampleApp_ProcessEvent_1:
        MOV     DPTR,#SampleApp_TaskID
        MOVX    A,@DPTR
        MOV     R1,A
        LCALL   ??osal_msg_receive?relay
        MOV     ?V0 + 0,R2
        MOV     ?V0 + 1,R3
        MOV     R6,?V0 + 0
        MOV     R7,?V0 + 1
        MOV     A,R6
        ORL     A,R7
        JNZ     $+5
        LJMP    ??SampleApp_ProcessEvent_5 & 0xFFFF
        MOV     A,R6
        ADD     A,#0x2
        MOV     ?V0 + 0,A
        MOV     A,R7
        ADDC    A,#0x0
        MOV     ?V0 + 1,A
        MOV     DPL,R6
        MOV     DPH,R7
        MOVX    A,@DPTR
        DEC     A
        JZ      ??SampleApp_ProcessEvent_6
        ADD     A,#0x41
        JNZ     ??SampleApp_ProcessEvent_3
        ; Setup parameters for call to function SampleApp_HandleKeys
        INC     DPTR
        INC     DPTR
        INC     DPTR
        MOVX    A,@DPTR
        MOV     R2,A
        MOV     DPL,?V0 + 0
        MOV     DPH,?V0 + 1
        MOVX    A,@DPTR
        MOV     R1,A
        LCALL   ??SampleApp_HandleKeys?relay
        SJMP    ??SampleApp_ProcessEvent_3
??SampleApp_ProcessEvent_6:
        MOV     DPL,?V0 + 0
        MOV     DPH,?V0 + 1
        MOVX    A,@DPTR
        MOV     R0,A
        INC     DPTR
        MOVX    A,@DPTR
        MOV     R1,A
        MOV     DPL,R0
        MOV     DPH,R1
        ; Setup parameters for call to function HalUARTWrite
        MOVX    A,@DPTR
        MOV     R4,A
        MOV     R5,#0x0
        INC     DPTR
        MOV     R2,DPL
        MOV     R3,DPH
        MOV     R1,#0x0
        LCALL   ??HalUARTWrite?relay
        MOV     DPL,?V0 + 0
        MOV     DPH,?V0 + 1
        MOVX    A,@DPTR
        ADD     A,#0x1
        MOV     ?V0 + 0,A
        INC     DPTR
        MOVX    A,@DPTR
        ADDC    A,#0x0
        MOV     ?V0 + 1,A
        ; Setup parameters for call to function memcmp
        MOV     ?V0 + 4,#0x3
        MOV     ?V0 + 5,#0x0
        MOV     R0,#?V0 + 4
        LCALL   ?PUSH_XSTACK_I_TWO
        CFI CFA_XSP16 add(XSP16, 16)
        MOV     R4,#`?<Constant "OFF">` & 0xff
        MOV     R5,#(`?<Constant "OFF">` >> 8) & 0xff
        MOV     R2,?V0 + 0
        MOV     R3,?V0 + 1
        LCALL   ??memcmp?relay
        MOV     A,#0x2
        LCALL   ?DEALLOC_XSTACK8
        CFI CFA_XSP16 add(XSP16, 14)
        MOV     ?V0 + 5,R3
        MOV     A,R2
        ORL     A,?V0 + 5
        JZ      $+5
        LJMP    ??SampleApp_ProcessEvent_2 & 0xFFFF
        ; Setup parameters for call to function HalLedSet
        MOV     R2,#0x1
        LJMP    ??SampleApp_ProcessEvent_4 & 0xFFFF
//  297     }
//  298 
//  299     // return unprocessed events
//  300     return (events ^ SYS_EVENT_MSG);
??SampleApp_ProcessEvent_5:
        MOV     R2,?V0 + 2
        MOV     A,?V0 + 3
        XRL     A,#0x80
        MOV     R3,A
        SJMP    ??SampleApp_ProcessEvent_7
//  301   }
//  302   return 0;
??SampleApp_ProcessEvent_0:
        MOV     R2,#0x0
        MOV     R3,#0x0
??SampleApp_ProcessEvent_7:
        MOV     R7,#0x6
        LJMP    ?BANKED_LEAVE_XDATA
        CFI EndBlock cfiBlock1
//  303 }
//  304 

        RSEG BANKED_CODE:CODE:NOROOT(0)
//  305 void SampleApp_HandleKeys(uint8 shift, uint8 keys)
SampleApp_HandleKeys:
        CFI Block cfiBlock2 Using cfiCommon0
        CFI Function SampleApp_HandleKeys
        CODE
//  306 {
        FUNCALL SampleApp_HandleKeys, HalLedSet
        LOCFRAME ISTACK, 0, STACK
        LOCFRAME PSTACK, 0, STACK
        LOCFRAME XSTACK, 9, STACK
        LOCFRAME IOVERLAY, 0, STATIC
        LOCFRAME DOVERLAY, 0, STATIC
        ARGFRAME ISTACK, 0, STACK
        ARGFRAME PSTACK, 0, STACK
        ARGFRAME XSTACK, 9, STACK
        ARGFRAME IOVERLAY, 0, STATIC
        ARGFRAME DOVERLAY, 0, STATIC
        FUNCALL SampleApp_HandleKeys, SampleApp_SendFlashMessage
        LOCFRAME ISTACK, 0, STACK
        LOCFRAME PSTACK, 0, STACK
        LOCFRAME XSTACK, 9, STACK
        LOCFRAME IOVERLAY, 0, STATIC
        LOCFRAME DOVERLAY, 0, STATIC
        ARGFRAME ISTACK, 0, STACK
        ARGFRAME PSTACK, 0, STACK
        ARGFRAME XSTACK, 9, STACK
        ARGFRAME IOVERLAY, 0, STATIC
        ARGFRAME DOVERLAY, 0, STATIC
        FUNCALL SampleApp_HandleKeys, HalLedSet
        LOCFRAME ISTACK, 0, STACK
        LOCFRAME PSTACK, 0, STACK
        LOCFRAME XSTACK, 9, STACK
        LOCFRAME IOVERLAY, 0, STATIC
        LOCFRAME DOVERLAY, 0, STATIC
        ARGFRAME ISTACK, 0, STACK
        ARGFRAME PSTACK, 0, STACK
        ARGFRAME XSTACK, 9, STACK
        ARGFRAME IOVERLAY, 0, STATIC
        ARGFRAME DOVERLAY, 0, STATIC
        MOV     A,#-0x9
        LCALL   ?BANKED_ENTER_XDATA
        CFI DPH0 load(1, XDATA, add(CFA_XSP16, literal(-1)))
        CFI DPL0 load(1, XDATA, add(CFA_XSP16, literal(-2)))
        CFI ?BRET_EXT load(1, XDATA, add(CFA_XSP16, literal(-3)))
        CFI ?RET_HIGH load(1, XDATA, add(CFA_XSP16, literal(-4)))
        CFI ?RET_LOW load(1, XDATA, add(CFA_XSP16, literal(-5)))
        CFI R7 load(1, XDATA, add(CFA_XSP16, literal(-6)))
        CFI V0 load(1, XDATA, add(CFA_XSP16, literal(-7)))
        CFI VB load(1, XDATA, add(CFA_XSP16, literal(-8)))
        CFI R6 load(1, XDATA, add(CFA_XSP16, literal(-9)))
        CFI CFA_SP SP+0
        CFI CFA_XSP16 add(XSP16, 9)
        ; Saved register size: 9
        ; Auto size: 0
        MOV     A,R2
        MOV     R6,A
//  307   (void)shift; // Intentionally unreferenced parameter
//  308 
//  309   if (keys & HAL_KEY_SW_6)
        MOV     C,0xE0 /* A   */.5
        JNC     ??SampleApp_HandleKeys_0
//  310   {
//  311 
//  312     led1_flag = !led1_flag;
        MOV     DPTR,#led1_flag
        MOVX    A,@DPTR
        JNZ     ??SampleApp_HandleKeys_1
        MOV     A,#0x1
        SJMP    ??SampleApp_HandleKeys_2
??SampleApp_HandleKeys_1:
        CLR     A
??SampleApp_HandleKeys_2:
        MOVX    @DPTR,A
//  313     HalLedSet(HAL_LED_1, led1_flag);
        ; Setup parameters for call to function HalLedSet
        MOVX    A,@DPTR
        MOV     R2,A
        MOV     R1,#0x1
        LCALL   ??HalLedSet?relay
//  314     SampleApp_SendFlashMessage(0);
        ; Setup parameters for call to function SampleApp_SendFlashMessage
        MOV     R2,#0x0
        MOV     R3,#0x0
        LCALL   ??SampleApp_SendFlashMessage?relay
//  315   }
//  316   if (keys & HAL_KEY_SW_7)
??SampleApp_HandleKeys_0:
        MOV     A,R6
        MOV     C,0xE0 /* A   */.6
        JNC     ??SampleApp_HandleKeys_3
//  317   {
//  318 
//  319     led2_flag = !led2_flag;
        MOV     DPTR,#led2_flag
        MOVX    A,@DPTR
        JNZ     ??SampleApp_HandleKeys_4
        MOV     A,#0x1
        SJMP    ??SampleApp_HandleKeys_5
??SampleApp_HandleKeys_4:
        CLR     A
??SampleApp_HandleKeys_5:
        MOVX    @DPTR,A
//  320     HalLedSet(HAL_LED_2, led2_flag);
        ; Setup parameters for call to function HalLedSet
        MOVX    A,@DPTR
        MOV     R2,A
        MOV     R1,#0x2
        LCALL   ??HalLedSet?relay
//  321   }
//  322 }
??SampleApp_HandleKeys_3:
        MOV     R7,#0x1
        LJMP    ?BANKED_LEAVE_XDATA
        CFI EndBlock cfiBlock2
//  323 

        RSEG BANKED_CODE:CODE:NOROOT(0)
//  324 void SampleApp_SendFlashMessage(uint16 flashTime)
SampleApp_SendFlashMessage:
        CFI Block cfiBlock3 Using cfiCommon0
        CFI Function SampleApp_SendFlashMessage
        CODE
//  325 {
        FUNCALL SampleApp_SendFlashMessage, AF_DataRequest
        LOCFRAME ISTACK, 0, STACK
        LOCFRAME PSTACK, 0, STACK
        LOCFRAME XSTACK, 19, STACK
        LOCFRAME IOVERLAY, 0, STATIC
        LOCFRAME DOVERLAY, 0, STATIC
        ARGFRAME ISTACK, 0, STACK
        ARGFRAME PSTACK, 0, STACK
        ARGFRAME XSTACK, 19, STACK
        ARGFRAME IOVERLAY, 0, STATIC
        ARGFRAME DOVERLAY, 0, STATIC
        MOV     A,#-0xa
        LCALL   ?BANKED_ENTER_XDATA
        CFI DPH0 load(1, XDATA, add(CFA_XSP16, literal(-1)))
        CFI DPL0 load(1, XDATA, add(CFA_XSP16, literal(-2)))
        CFI ?BRET_EXT load(1, XDATA, add(CFA_XSP16, literal(-3)))
        CFI ?RET_HIGH load(1, XDATA, add(CFA_XSP16, literal(-4)))
        CFI ?RET_LOW load(1, XDATA, add(CFA_XSP16, literal(-5)))
        CFI R7 load(1, XDATA, add(CFA_XSP16, literal(-6)))
        CFI V1 load(1, XDATA, add(CFA_XSP16, literal(-7)))
        CFI V0 load(1, XDATA, add(CFA_XSP16, literal(-8)))
        CFI VB load(1, XDATA, add(CFA_XSP16, literal(-9)))
        CFI R6 load(1, XDATA, add(CFA_XSP16, literal(-10)))
        CFI CFA_SP SP+0
        CFI CFA_XSP16 add(XSP16, 10)
        ; Saved register size: 10
        ; Auto size: 0
//  326 
//  327   if (AF_DataRequest(&SampleApp_Flash_DstAddr, &SampleApp_epDesc,
//  328                      SAMPLEAPP_FLASH_CLUSTERID,
//  329                      1,
//  330                      &led1_flag,
//  331                      &SampleApp_TransID,
//  332                      AF_DISCV_ROUTE,
//  333                      AF_DEFAULT_RADIUS) == afStatus_SUCCESS)
        ; Setup parameters for call to function AF_DataRequest
        MOV     ?V0 + 0,#0x1e
        MOV     R0,#?V0 + 0
        LCALL   ?PUSH_XSTACK_I_ONE
        CFI CFA_XSP16 add(XSP16, 11)
        MOV     ?V0 + 0,#SampleApp_TransID & 0xff
        MOV     ?V0 + 1,#(SampleApp_TransID >> 8) & 0xff
        MOV     R0,#?V0 + 0
        LCALL   ?PUSH_XSTACK_I_TWO
        CFI CFA_XSP16 add(XSP16, 13)
        MOV     ?V0 + 0,#led1_flag & 0xff
        MOV     ?V0 + 1,#(led1_flag >> 8) & 0xff
        MOV     R0,#?V0 + 0
        LCALL   ?PUSH_XSTACK_I_TWO
        CFI CFA_XSP16 add(XSP16, 15)
        MOV     ?V0 + 0,#0x1
        MOV     ?V0 + 1,#0x0
        MOV     R0,#?V0 + 0
        LCALL   ?PUSH_XSTACK_I_TWO
        CFI CFA_XSP16 add(XSP16, 17)
        MOV     ?V0 + 0,#0x2
        MOV     R0,#?V0 + 0
        LCALL   ?PUSH_XSTACK_I_TWO
        CFI CFA_XSP16 add(XSP16, 19)
        MOV     R1,#0x20
        MOV     R4,#SampleApp_epDesc & 0xff
        MOV     R5,#(SampleApp_epDesc >> 8) & 0xff
        MOV     R2,#SampleApp_Flash_DstAddr & 0xff
        MOV     R3,#(SampleApp_Flash_DstAddr >> 8) & 0xff
        LCALL   ??AF_DataRequest?relay
        MOV     A,#0x9
        LCALL   ?DEALLOC_XSTACK8
        CFI CFA_XSP16 add(XSP16, 10)
//  334   {
//  335     // HalLedBlink(HAL_LED_2, 3, 50, 500);
//  336   }
//  337   else
//  338   {
//  339     // Error occurred in request to send.
//  340   }
//  341 }
        MOV     R7,#0x2
        LJMP    ?BANKED_LEAVE_XDATA
        CFI EndBlock cfiBlock3

        RSEG BANK_RELAYS:CODE:REORDER:NOROOT(0)
??SampleApp_Init?relay:
        LCALL   ?BDISPATCH
        DATA
        DC24    SampleApp_Init

        RSEG BANK_RELAYS:CODE:REORDER:NOROOT(0)
??SampleApp_ProcessEvent?relay:
        LCALL   ?BDISPATCH
        DATA
        DC24    SampleApp_ProcessEvent

        RSEG BANK_RELAYS:CODE:REORDER:NOROOT(0)
??SampleApp_HandleKeys?relay:
        LCALL   ?BDISPATCH
        DATA
        DC24    SampleApp_HandleKeys

        RSEG BANK_RELAYS:CODE:REORDER:NOROOT(0)
??SampleApp_SendFlashMessage?relay:
        LCALL   ?BDISPATCH
        DATA
        DC24    SampleApp_SendFlashMessage

        RSEG XDATA_ROM_C:CONST:REORDER:NOROOT(0)
        DATA8
`?<Constant "EndDevice-2\\r\\n">`:
        DB "EndDevice-2\015\012"

        RSEG XDATA_ROM_C:CONST:REORDER:NOROOT(0)
        DATA8
`?<Constant "Group 1">`:
        DB "Group 1"

        RSEG XDATA_ROM_C:CONST:REORDER:NOROOT(0)
        DATA8
`?<Constant "SampleApp">`:
        DB "SampleApp"

        RSEG XDATA_ROM_C:CONST:REORDER:NOROOT(0)
        DATA32
`?<Constant "OFF">`:
        DB "OFF"

        RSEG XDATA_ROM_C:CONST:REORDER:NOROOT(0)
        DATA8
`?<Constant "ON">`:
        DB "ON"

        END
//  342 
//  343 /*********************************************************************
//  344 *********************************************************************/
// 
// 652 bytes in segment BANKED_CODE
//  24 bytes in segment BANK_RELAYS
//   1 byte  in segment SFR_AN
//  55 bytes in segment XDATA_ROM_C
//  67 bytes in segment XDATA_Z
// 
// 676 bytes of CODE  memory
//  55 bytes of CONST memory
//   0 bytes of DATA  memory (+ 1 byte shared)
//  67 bytes of XDATA memory
//
//Errors: none
//Warnings: 2
